; Function Attrs: nofree norecurse nosync nounwind memory(read, inaccessiblemem: none) uwtable
define i32 @Bac_ManAssignCountNames(ptr noundef readonly captures(none) %0) local_unnamed_addr #8 {
  %2 = getelementptr i8, ptr %0, i64 36
  %.val40 = load i32, ptr %2, align 4, !tbaa !22
  %3 = icmp sgt i32 %.val40, 0
  br i1 %3, label %.lr.ph, label %.critedge.preheader

.lr.ph:                                           ; preds = %1
  %4 = getelementptr i8, ptr %0, i64 40
  %.val41 = load ptr, ptr %4, align 8, !tbaa !23
  %5 = getelementptr i8, ptr %0, i64 88
  %.val42 = load ptr, ptr %5, align 8, !tbaa !34
  %6 = getelementptr i8, ptr %0, i64 136
  %wide.trip.count = zext nneg i32 %.val40 to i64
  br label %12

.critedge.preheader:                              ; preds = %23, %1
  %.0.lcssa = phi i32 [ 0, %1 ], [ %.1, %23 ]
  %7 = getelementptr i8, ptr %0, i64 84
  %.val39 = load i32, ptr %7, align 4, !tbaa !33
  %8 = icmp sgt i32 %.val39, 0
  br i1 %8, label %.lr.ph59, label %.critedge._crit_edge

.lr.ph59:                                         ; preds = %.critedge.preheader
  %9 = getelementptr i8, ptr %0, i64 88
  %.val46 = load ptr, ptr %9, align 8, !tbaa !34
  %10 = getelementptr i8, ptr %0, i64 136
  %11 = zext nneg i32 %.val39 to i64
  %wide.trip.count72 = zext nneg i32 %.val39 to i64
  br label %24

12:                                               ; preds = %.lr.ph, %23
  %indvars.iv = phi i64 [ 0, %.lr.ph ], [ %indvars.iv.next, %23 ]
  %.049 = phi i32 [ 0, %.lr.ph ], [ %.1, %23 ]
  %13 = getelementptr inbounds nuw i32, ptr %.val41, i64 %indvars.iv
  %14 = load i32, ptr %13, align 4, !tbaa !24
  %15 = sext i32 %14 to i64
  %16 = getelementptr inbounds i8, ptr %.val42, i64 %15
  %17 = load i8, ptr %16, align 1, !tbaa !25
  %18 = and i8 %17, 1
  %.not36 = icmp eq i8 %18, 0
  br i1 %.not36, label %19, label %23

19:                                               ; preds = %12
  %.val44 = load ptr, ptr %6, align 8, !tbaa !23
  %20 = getelementptr inbounds i32, ptr %.val44, i64 %15
  %21 = load i32, ptr %20, align 4, !tbaa !24
  %.not37 = icmp eq i32 %21, 0
  %22 = zext i1 %.not37 to i32
  %spec.select = add nsw i32 %.049, %22
  br label %23

23:                                               ; preds = %19, %12
  %.1 = phi i32 [ %.049, %12 ], [ %spec.select, %19 ]
  %indvars.iv.next = add nuw nsw i64 %indvars.iv, 1
  %exitcond.not = icmp eq i64 %indvars.iv.next, %wide.trip.count
  br i1 %exitcond.not, label %.critedge.preheader, label %12, !llvm.loop !46

24:                                               ; preds = %.lr.ph59, %.critedge2
  %indvars.iv69 = phi i64 [ 0, %.lr.ph59 ], [ %indvars.iv.next70, %.critedge2 ]
  %indvars.iv62 = phi i64 [ 1, %.lr.ph59 ], [ %indvars.iv.next63, %.critedge2 ]
  %.258 = phi i32 [ %.0.lcssa, %.lr.ph59 ], [ %.5, %.critedge2 ]
  %25 = getelementptr inbounds nuw i8, ptr %.val46, i64 %indvars.iv69
  %26 = load i8, ptr %25, align 1, !tbaa !25
  %27 = lshr i8 %26, 1
  %28 = add nsw i8 %27, -5
  %29 = icmp ult i8 %28, 68
  %indvars.iv.next70 = add nuw nsw i64 %indvars.iv69, 1
  %30 = icmp samesign ult i64 %indvars.iv.next70, %11
  %or.cond = select i1 %29, i1 %30, i1 false
  br i1 %or.cond, label %.lr.ph53, label %.critedge2

.lr.ph53:                                         ; preds = %24, %39
  %indvars.iv64 = phi i64 [ %indvars.iv.next65, %39 ], [ %indvars.iv62, %24 ]
  %.351 = phi i32 [ %.4, %39 ], [ %.258, %24 ]
  %31 = getelementptr inbounds nuw i8, ptr %.val46, i64 %indvars.iv64
  %32 = load i8, ptr %31, align 1, !tbaa !25
  %.mask.i = and i8 %32, -2
  %.not = icmp eq i8 %.mask.i, 8
  br i1 %.not, label %33, label %.critedge2

33:                                               ; preds = %.lr.ph53
  %34 = and i8 %32, 1
  %.not34 = icmp eq i8 %34, 0
  br i1 %.not34, label %35, label %39

35:                                               ; preds = %33
  %.val45 = load ptr, ptr %10, align 8, !tbaa !23
  %36 = getelementptr inbounds nuw i32, ptr %.val45, i64 %indvars.iv64
  %37 = load i32, ptr %36, align 4, !tbaa !24
  %.not35 = icmp eq i32 %37, 0
  %38 = zext i1 %.not35 to i32
  %spec.select38 = add nsw i32 %.351, %38
  br label %39

39:                                               ; preds = %35, %33
  %.4 = phi i32 [ %.351, %33 ], [ %spec.select38, %35 ]
  %indvars.iv.next65 = add nuw nsw i64 %indvars.iv64, 1
  %exitcond68.not = icmp eq i64 %indvars.iv.next65, %wide.trip.count72
  br i1 %exitcond68.not, label %.critedge2, label %.lr.ph53, !llvm.loop !47

.critedge2:                                       ; preds = %.lr.ph53, %39, %24
  %.5 = phi i32 [ %.258, %24 ], [ %.351, %.lr.ph53 ], [ %.4, %39 ]
  %indvars.iv.next63 = add nuw nsw i64 %indvars.iv62, 1
  %exitcond73.not = icmp eq i64 %indvars.iv.next70, %wide.trip.count72
  br i1 %exitcond73.not, label %.critedge._crit_edge, label %24, !llvm.loop !48

.critedge._crit_edge:                             ; preds = %.critedge2, %.critedge.preheader
  %.2.lcssa = phi i32 [ %.0.lcssa, %.critedge.preheader ], [ %.5, %.critedge2 ]
  ret i32 %.2.lcssa
}